(lp0
(lp1
(lp2
(lp3
S'1'
p4
aS'presoak'
p5
aS'VB'
p6
aS'0'
p7
aS'root'
p8
aa(lp9
S'2'
p10
aS'peas'
p11
aS'NNS'
p12
ag4
aS'dobj'
p13
aa(lp14
S'4'
p15
aS'if'
p16
aS'IN'
p17
aS'5'
p18
aS'mark'
p19
aa(lp20
g18
aS'necessary'
p21
aS'JJ'
p22
ag4
aS'advcl'
p23
aa(lp24
S'7'
p25
aS'according'
p26
aS'VBG'
p27
aS'10'
p28
aS'case'
p29
aa(lp30
S'8'
p31
aS'to'
p32
aS'TO'
p33
ag25
aS'mwe'
p34
aa(lp35
S'9'
p36
aS'package'
p37
aS'NN'
p38
aS'10'
p39
aS'compound'
p40
aa(lp41
S'10'
p42
aS'directions'
p43
aS'NNS'
p44
ag4
aS'nmod'
p45
aaa(lp46
(lp47
g4
aS'drain'
p48
aS'VB'
p49
ag7
aS'root'
p50
aa(lp51
g10
aS'well'
p52
aS'RB'
p53
ag4
aS'advmod'
p54
aa(lp55
g15
aS'if'
p56
aS'IN'
p57
ag18
aS'mark'
p58
aa(lp59
g18
aS'presoaked'
p60
aS'VBD'
p61
ag4
aS'advcl'
p62
aaa(lp63
(lp64
g4
aS'in'
p65
aS'IN'
p66
ag15
aS'case'
p67
aa(lp68
g10
aS'a'
p69
aS'DT'
p70
ag15
aS'det'
p71
aa(lp72
S'3'
p73
aS'large'
p74
aS'JJ'
p75
ag15
aS'amod'
p76
aa(lp77
g15
aS'pot'
p78
aS'NN'
p79
aS'6'
p80
aS'nmod'
p81
aa(lp82
g80
aS'add'
p83
aS'VB'
p84
ag7
aS'root'
p85
aa(lp86
g25
aS'water'
p87
aS'NN'
p88
ag80
aS'dobj'
p89
aa(lp90
g31
aS'or'
p91
aS'CC'
p92
ag25
aS'cc'
p93
aa(lp94
g36
aS'stock'
p95
aS'NN'
p96
ag25
aS'conj'
p97
aa(lp98
S'11'
p99
aS'whole'
p100
aS'JJ'
p101
aS'12'
p102
aS'amod'
p103
aa(lp104
S'12'
p105
aS'onion'
p106
aS'NN'
p107
ag25
aS'conj'
p108
aa(lp109
S'14'
p110
aS'carrot'
p111
aS'NN'
p112
ag25
aS'conj'
p113
aa(lp114
S'16'
p115
aS'turnip'
p116
aS'NN'
p117
ag25
aS'conj'
p118
aa(lp119
S'17'
p120
aS'or'
p121
aS'CC'
p122
ag25
aS'cc'
p123
aa(lp124
S'18'
p125
aS'parsnip'
p126
aS'NN'
p127
ag25
aS'conj'
p128
aa(lp129
S'20'
p130
aS'marjoram'
p131
aS'NN'
p132
aS'18'
p133
aS'conj'
p134
aa(lp135
S'22'
p136
aS'thyme'
p137
aS'NN'
p138
aS'18'
p139
aS'conj'
p140
aa(lp141
S'24'
p142
aS'and'
p143
aS'CC'
p144
aS'18'
p145
aS'cc'
p146
aa(lp147
S'25'
p148
aS'salt'
p149
aS'NN'
p150
aS'18'
p151
aS'conj'
p152
aaa(lp153
(lp154
g4
aS'cook'
p155
aS'VB'
p156
ag7
aS'root'
p157
aa(lp158
g10
aS'until'
p159
aS'IN'
p160
ag25
aS'mark'
p161
aa(lp162
g73
aS'peas'
p163
aS'NNS'
p164
ag25
aS'nsubj'
p165
aa(lp166
g15
aS'and'
p167
aS'CC'
p168
ag73
aS'cc'
p169
aa(lp170
g18
aS'vegetables'
p171
aS'NNS'
p172
ag73
aS'conj'
p173
aa(lp174
g80
aS'are'
p175
aS'VBP'
p176
ag25
aS'cop'
p177
aa(lp178
g25
aS'tender'
p179
aS'NN'
p180
ag4
aS'advcl'
p181
aa(lp182
g36
aS'about'
p183
aS'RB'
p184
aS'12'
p185
aS'advmod'
p186
aa(lp187
S'10'
p188
aS'1.5'
p189
aS'CD'
p190
aS'12'
p191
aS'compound'
p192
aa(lp193
S'11'
p194
aS'to'
p195
aS'TO'
p196
aS'12'
p197
aS'dep'
p198
aa(lp199
S'12'
p200
ag10
aS'CD'
p201
aS'13'
p202
aS'nummod'
p203
aa(lp204
S'13'
p205
aS'hours'
p206
aS'NNS'
p207
ag25
aS'appos'
p208
aaa(lp209
(lp210
g4
aS'drain'
p211
aS'VB'
p212
ag7
aS'root'
p213
aa(lp214
g10
aS'well'
p215
aS'RB'
p216
ag4
aS'advmod'
p217
aaa(lp218
(lp219
g4
aS'mash'
p220
aS'NN'
p221
ag10
aS'compound'
p222
aa(lp223
g10
aS'peas'
p224
aS'NNS'
p225
ag7
aS'root'
p226
aa(lp227
g73
aS'and'
p228
aS'CC'
p229
ag10
aS'cc'
p230
aa(lp231
g15
aS'vegetables'
p232
aS'NNS'
p233
ag10
aS'conj'
p234
aa(lp235
g18
aS'in'
p236
aS'IN'
p237
ag80
aS'case'
p238
aa(lp239
g80
aS'blender'
p240
aS'NN'
p241
ag10
aS'nmod'
p242
aa(lp243
g25
aS'or'
p244
aS'CC'
p245
ag80
aS'cc'
p246
aa(lp247
g31
aS'press'
p248
aS'NN'
p249
ag80
aS'conj'
p250
aa(lp251
g36
aS'through'
p252
aS'IN'
p253
aS'11'
p254
aS'case'
p255
aa(lp256
S'10'
p257
ag69
aS'DT'
p258
aS'11'
p259
aS'det'
p260
aa(lp261
S'11'
p262
aS'sieve'
p263
aS'NN'
p264
ag10
aS'nmod'
p265
aaa(lp266
(lp267
g4
aS'in'
p268
aS'IN'
p269
ag18
aS'case'
p270
aa(lp271
g10
ag69
aS'DT'
p272
ag18
aS'det'
p273
aa(lp274
g73
aS'small'
p275
aS'JJ'
p276
ag18
aS'amod'
p277
aa(lp278
g15
aS'frying'
p279
aS'NN'
p280
ag18
aS'compound'
p281
aa(lp282
g18
aS'pan'
p283
aS'NN'
p284
ag25
aS'nmod'
p285
aa(lp286
g25
aS'saute'
p287
aS'VB'
p288
ag7
aS'root'
p289
aa(lp290
g31
aS'the'
p291
aS'DT'
p292
aS'10'
p293
aS'det'
p294
aa(lp295
g36
aS'minced'
p296
aS'JJ'
p297
aS'10'
p298
aS'amod'
p299
aa(lp300
S'10'
p301
aS'onion'
p302
aS'NN'
p303
ag25
aS'dobj'
p304
aa(lp305
S'11'
p306
aS'in'
p307
aS'IN'
p308
aS'12'
p309
aS'case'
p310
aa(lp311
S'12'
p312
aS'butter'
p313
aS'NN'
p314
aS'10'
p315
aS'nmod'
p316
aa(lp317
S'13'
p318
aS'until'
p319
aS'IN'
p320
aS'15'
p321
aS'case'
p322
aa(lp323
S'14'
p324
aS'lightly'
p325
aS'RB'
p326
aS'15'
p327
aS'advmod'
p328
aa(lp329
S'15'
p330
aS'browned'
p331
aS'VBN'
p332
ag25
aS'nmod'
p333
aa(lp334
S'17'
p335
aS'blend'
p336
aS'VB'
p337
aS'15'
p338
aS'parataxis'
p339
aa(lp340
S'18'
p341
aS'in'
p342
aS'IN'
p343
aS'19'
p344
aS'case'
p345
aa(lp346
S'19'
p347
aS'flour'
p348
aS'NN'
p349
aS'17'
p350
aS'nmod'
p351
aa(lp352
S'20'
p353
aS'and'
p354
aS'CC'
p355
aS'15'
p356
aS'cc'
p357
aa(lp358
S'21'
p359
aS'cook'
p360
aS'NN'
p361
aS'15'
p362
aS'conj'
p363
aa(lp364
S'22'
p365
aS'about'
p366
aS'RB'
p367
aS'23'
p368
aS'advmod'
p369
aa(lp370
S'23'
p371
ag10
aS'CD'
p372
aS'24'
p373
aS'nummod'
p374
aa(lp375
S'24'
p376
aS'minutes'
p377
aS'NNS'
p378
aS'21'
p379
aS'dep'
p380
aaa(lp381
(lp382
g4
aS'add'
p383
aS'VB'
p384
ag7
aS'root'
p385
aa(lp386
g10
aS'to'
p387
aS'TO'
p388
ag15
aS'case'
p389
aa(lp390
g73
aS'blended'
p391
aS'JJ'
p392
ag15
aS'amod'
p393
aa(lp394
g15
aS'peas'
p395
aS'NNS'
p396
ag4
aS'nmod'
p397
aa(lp398
g18
aS'and'
p399
aS'CC'
p400
ag15
aS'cc'
p401
aa(lp402
g80
aS'vegetables'
p403
aS'NNS'
p404
ag15
aS'conj'
p405
aaa(lp406
(lp407
g4
aS'beat'
p408
aS'VB'
p409
ag7
aS'root'
p410
aa(lp411
g10
aS'until'
p412
aS'IN'
p413
ag73
aS'case'
p414
aa(lp415
g73
aS'fluffy'
p416
aS'NNP'
p417
ag4
aS'nmod'
p418
aa(lp419
g15
aS'and'
p420
aS'CC'
p421
ag4
aS'cc'
p422
aa(lp423
g18
aS'serve'
p424
aS'VB'
p425
ag4
aS'conj'
p426
aa(lp427
g80
aS'hot'
p428
aS'JJ'
p429
ag18
aS'xcomp'
p430
aaaa(lp431
(lp432
(lp433
g4
aS'cover'
p434
aS'VB'
p435
ag7
aS'root'
p436
aa(lp437
g10
aS'beans'
p438
aS'NNS'
p439
ag4
aS'dobj'
p440
aa(lp441
g73
aS'with'
p442
aS'IN'
p443
ag15
aS'case'
p444
aa(lp445
g15
aS'water'
p446
aS'NN'
p447
ag4
aS'nmod'
p448
aa(lp449
g18
aS'in'
p450
aS'IN'
p451
ag25
aS'case'
p452
aa(lp453
g80
aS'large'
p454
aS'JJ'
p455
ag25
aS'amod'
p456
aa(lp457
g25
aS'pot'
p458
aS'NN'
p459
ag15
aS'nmod'
p460
aa(lp461
g31
aS'or'
p462
aS'CC'
p463
ag25
aS'cc'
p464
aa(lp465
g36
aS'soup'
p466
aS'NN'
p467
aS'10'
p468
aS'compound'
p469
aa(lp470
S'10'
p471
aS'kettle'
p472
aS'NN'
p473
ag25
aS'conj'
p474
aa(lp475
S'11'
p476
aS'and'
p477
aS'CC'
p478
ag4
aS'cc'
p479
aa(lp480
S'12'
p481
aS'soak'
p482
aS'VB'
p483
ag4
aS'conj'
p484
aa(lp485
S'13'
p486
aS'overnight'
p487
aS'RB'
p488
aS'12'
p489
aS'advmod'
p490
aaa(lp491
(lp492
g4
aS'rinse'
p493
aS'VB'
p494
ag7
aS'root'
p495
aa(lp496
g10
aS'beans'
p497
aS'NNS'
p498
ag4
aS'dobj'
p499
aa(lp500
g73
aS'well'
p501
aS'RB'
p502
ag4
aS'advmod'
p503
aa(lp504
g15
aS'and'
p505
aS'CC'
p506
ag4
aS'cc'
p507
aa(lp508
g18
aS'return'
p509
aS'VB'
p510
ag4
aS'conj'
p511
aa(lp512
g80
aS'to'
p513
aS'TO'
p514
ag25
aS'case'
p515
aa(lp516
g25
aS'pot'
p517
aS'NN'
p518
ag18
aS'nmod'
p519
aa(lp520
g31
aS'with'
p521
aS'IN'
p522
aS'10'
p523
aS'case'
p524
aa(lp525
g36
aS'ham'
p526
aS'NN'
p527
aS'10'
p528
aS'compound'
p529
aa(lp530
S'10'
p531
aS'bone'
p532
aS'NN'
p533
ag25
aS'nmod'
p534
aa(lp535
S'11'
p536
aS'and'
p537
aS'CC'
p538
ag25
aS'cc'
p539
aa(lp540
S'12'
p541
ag73
aS'CD'
p542
aS'13'
p543
aS'compound'
p544
aa(lp545
S'13'
p546
aS'quarts'
p547
aS'NNS'
p548
ag25
aS'conj'
p549
aa(lp550
S'14'
p551
aS'of'
p552
aS'IN'
p553
aS'15'
p554
aS'case'
p555
aa(lp556
S'15'
p557
aS'water'
p558
aS'NN'
p559
aS'13'
p560
aS'nmod'
p561
aaa(lp562
(lp563
g4
aS'simmer'
p564
aS'NN'
p565
ag7
aS'root'
p566
aa(lp567
g73
aS'uncovered'
p568
aS'VBN'
p569
ag4
aS'acl'
p570
aa(lp571
g18
aS'for'
p572
aS'IN'
p573
ag25
aS'case'
p574
aa(lp575
g80
ag10
aS'CD'
p576
ag25
aS'nummod'
p577
aa(lp578
g25
aS'hours'
p579
aS'NNS'
p580
ag4
aS'nmod'
p581
aaa(lp582
(lp583
g4
aS'add'
p584
aS'VB'
p585
ag7
aS'root'
p586
aa(lp587
g10
aS'parsley'
p588
aS'JJ'
p589
ag4
aS'dobj'
p590
aa(lp591
g15
aS'onions'
p592
aS'JJ'
p593
ag10
aS'conj'
p594
aa(lp595
g80
aS'garlic'
p596
aS'JJ'
p597
ag10
aS'conj'
p598
aa(lp599
g31
aS'celery'
p600
aS'JJ'
p601
ag10
aS'conj'
p602
aa(lp603
g36
aS'and'
p604
aS'CC'
p605
ag10
aS'cc'
p606
aa(lp607
S'10'
p608
aS'tops'
p609
aS'JJ'
p610
ag10
aS'conj'
p611
aa(lp612
S'12'
p613
aS'salt'
p614
aS'NN'
p615
ag10
aS'conj'
p616
aa(lp617
S'13'
p618
aS'and'
p619
aS'CC'
p620
ag10
aS'cc'
p621
aa(lp622
S'14'
p623
aS'pepper'
p624
aS'NN'
p625
ag10
aS'conj'
p626
aaa(lp627
(lp628
g4
aS'simmer'
p629
aS'NN'
p630
ag7
aS'root'
p631
aa(lp632
g73
aS'uncovered'
p633
aS'JJ'
p634
ag4
aS'appos'
p635
aa(lp636
g18
aS'for'
p637
aS'IN'
p638
ag25
aS'case'
p639
aa(lp640
g80
ag4
aS'CD'
p641
ag25
aS'nummod'
p642
aa(lp643
g25
aS'hour'
p644
aS'NN'
p645
ag4
aS'nmod'
p646
aa(lp647
g31
aS'or'
p648
aS'CC'
p649
ag4
aS'cc'
p650
aa(lp651
g36
aS'until'
p652
aS'IN'
p653
aS'12'
p654
aS'mark'
p655
aa(lp656
S'10'
p657
aS'vegetables'
p658
aS'NNS'
p659
aS'12'
p660
aS'nsubj'
p661
aa(lp662
S'11'
p663
aS'are'
p664
aS'VBP'
p665
aS'12'
p666
aS'cop'
p667
aa(lp668
S'12'
p669
aS'tender'
p670
aS'NN'
p671
ag4
aS'conj'
p672
aaa(lp673
(lp674
g4
aS'remove'
p675
aS'VB'
p676
ag7
aS'root'
p677
aa(lp678
g10
aS'ham'
p679
aS'NN'
p680
ag73
aS'compound'
p681
aa(lp682
g73
aS'bone'
p683
aS'NN'
p684
ag4
aS'dobj'
p685
aa(lp686
g18
aS'dice'
p687
aS'VB'
p688
ag4
aS'conj'
p689
aa(lp690
g80
aS'the'
p691
aS'DT'
p692
ag25
aS'det'
p693
aa(lp694
g25
aS'meat'
p695
aS'NN'
p696
ag18
aS'dobj'
p697
aa(lp698
g36
aS'and'
p699
aS'CC'
p700
ag4
aS'cc'
p701
aa(lp702
S'10'
p703
aS'add'
p704
aS'VB'
p705
ag4
aS'conj'
p706
aa(lp707
S'11'
p708
aS'meat'
p709
aS'NN'
p710
aS'10'
p711
aS'dobj'
p712
aa(lp713
S'12'
p714
aS'to'
p715
aS'TO'
p716
aS'13'
p717
aS'case'
p718
aa(lp719
S'13'
p720
aS'soup'
p721
aS'NN'
p722
aS'10'
p723
aS'nmod'
p724
aaa(lp725
(lp726
g4
aS'serve'
p727
aS'VB'
p728
ag7
aS'root'
p729
aa(lp730
g10
aS'hot'
p731
aS'JJ'
p732
ag4
aS'xcomp'
p733
aaaa(lp734
(lp735
(lp736
g4
aS'drain'
p737
aS'NN'
p738
ag10
aS'compound'
p739
aa(lp740
g10
aS'asparagus'
p741
aS'NNS'
p742
ag73
aS'nsubj'
p743
aa(lp744
g73
aS'spears'
p745
aS'VBZ'
p746
ag7
aS'root'
p747
aa(lp748
g18
aS'reserving'
p749
aS'VBG'
p750
ag73
aS'xcomp'
p751
aa(lp752
g80
aS'0.5'
p753
aS'CD'
p754
ag25
aS'nummod'
p755
aa(lp756
g25
aS'cup'
p757
aS'NN'
p758
ag18
aS'dobj'
p759
aa(lp760
g31
aS'of'
p761
aS'IN'
p762
aS'10'
p763
aS'case'
p764
aa(lp765
g36
aS'the'
p766
aS'DT'
p767
aS'10'
p768
aS'det'
p769
aa(lp770
S'10'
p771
aS'liquid'
p772
aS'NN'
p773
ag25
aS'nmod'
p774
aaa(lp775
(lp776
g4
aS'heat'
p777
aS'VB'
p778
ag7
aS'root'
p779
aa(lp780
g10
aS'margarine'
p781
aS'NN'
p782
ag4
aS'dobj'
p783
aa(lp784
g73
aS'in'
p785
aS'IN'
p786
ag18
aS'case'
p787
aa(lp788
g15
ag69
aS'DT'
p789
ag18
aS'det'
p790
aa(lp791
g18
aS'saucepan'
p792
aS'NN'
p793
ag4
aS'nmod'
p794
aaa(lp795
(lp796
g4
aS'add'
p797
aS'VB'
p798
ag7
aS'root'
p799
aa(lp800
g10
aS'flour'
p801
aS'NN'
p802
ag4
aS'dobj'
p803
aa(lp804
g15
aS'blend'
p805
aS'VB'
p806
ag10
aS'dep'
p807
aaa(lp808
(lp809
g4
aS'gradually'
p810
aS'RB'
p811
ag10
aS'advmod'
p812
aa(lp813
g10
aS'pour'
p814
aS'VBP'
p815
ag7
aS'root'
p816
aa(lp817
g73
aS'in'
p818
aS'IN'
p819
ag15
aS'case'
p820
aa(lp821
g15
aS'asparagus'
p822
aS'NNS'
p823
ag10
aS'nmod'
p824
aa(lp825
g18
aS'liquid'
p826
aS'NN'
p827
ag10
aS'nsubj'
p828
aa(lp829
g80
aS'and'
p830
aS'CC'
p831
ag18
aS'cc'
p832
aa(lp833
g25
aS'milk'
p834
aS'NN'
p835
ag18
aS'conj'
p836
aaa(lp837
(lp838
g4
aS'stir'
p839
aS'VB'
p840
ag7
aS'root'
p841
aa(lp842
g10
aS'constantly'
p843
aS'RB'
p844
ag18
aS'advmod'
p845
aa(lp846
g73
aS'over'
p847
aS'IN'
p848
ag18
aS'case'
p849
aa(lp850
g15
aS'low'
p851
aS'JJ'
p852
ag18
aS'amod'
p853
aa(lp854
g18
aS'heat'
p855
aS'NN'
p856
ag4
aS'nmod'
p857
aa(lp858
g80
aS'until'
p859
aS'IN'
p860
ag31
aS'case'
p861
aa(lp862
g25
aS'sauce'
p863
aS'NN'
p864
ag31
aS'compound'
p865
aa(lp866
g31
aS'thickens'
p867
aS'NNS'
p868
ag4
aS'nmod'
p869
aa(lp870
g36
aS'and'
p871
aS'CC'
p872
ag31
aS'cc'
p873
aa(lp874
S'10'
p875
aS'bubbles'
p876
aS'NNS'
p877
ag31
aS'conj'
p878
aaa(lp879
(lp880
g4
aS'add'
p881
aS'VB'
p882
ag7
aS'root'
p883
aa(lp884
g10
aS'cooked'
p885
aS'VBN'
p886
ag4
aS'dep'
p887
aa(lp888
g73
aS'ham'
p889
aS'NN'
p890
ag10
aS'dobj'
p891
aa(lp892
g15
aS'and'
p893
aS'CC'
p894
ag73
aS'cc'
p895
aa(lp896
g18
aS'seasonings'
p897
aS'NNS'
p898
ag73
aS'conj'
p899
aaa(lp900
(lp901
g4
aS'gently'
p902
aS'RB'
p903
ag10
aS'advmod'
p904
aa(lp905
g10
aS'stir'
p906
aS'VB'
p907
ag7
aS'root'
p908
aa(lp909
g73
aS'in'
p910
aS'IN'
p911
ag18
aS'case'
p912
aa(lp913
g15
aS'asparagus'
p914
aS'JJ'
p915
ag18
aS'amod'
p916
aa(lp917
g18
aS'spears'
p918
aS'NNS'
p919
ag10
aS'nmod'
p920
aa(lp921
g25
aS'heat'
p922
aS'VB'
p923
ag10
aS'dep'
p924
aa(lp925
g31
aS'through'
p926
aS'RP'
p927
ag25
aS'compound:prt'
p928
aa(lp929
g36
aS'but'
p930
aS'CC'
p931
ag10
aS'cc'
p932
aa(lp933
S'10'
p934
aS'do'
p935
aS'VB'
p936
ag10
aS'conj'
p937
aa(lp938
S'11'
p939
aS'not'
p940
aS'RB'
p941
aS'12'
p942
aS'neg'
p943
aa(lp944
S'12'
p945
aS'boil'
p946
aS'NN'
p947
aS'10'
p948
aS'dobj'
p949
aaa(lp950
(lp951
g4
aS'serve'
p952
aS'VB'
p953
ag7
aS'root'
p954
aa(lp955
g10
aS'in'
p956
aS'IN'
p957
ag15
aS'mark'
p958
aa(lp959
g73
aS'preheated'
p960
aS'RB'
p961
ag15
aS'advmod'
p962
aa(lp963
g15
aS'serving'
p964
aS'VBG'
p965
ag4
aS'advcl'
p966
aa(lp967
g18
aS'dish'
p968
aS'NN'
p969
ag15
aS'dobj'
p970
aaaa(lp971
(lp972
(lp973
g4
aS'shred'
p974
aS'NN'
p975
ag10
aS'compound'
p976
aa(lp977
g10
aS'cabbage'
p978
aS'NN'
p979
ag7
aS'root'
p980
aaa(lp981
(lp982
g4
aS'heat'
p983
aS'VB'
p984
ag7
aS'root'
p985
aa(lp986
g10
aS'vegetable'
p987
aS'NN'
p988
ag73
aS'compound'
p989
aa(lp990
g73
aS'oil'
p991
aS'NN'
p992
ag4
aS'dobj'
p993
aa(lp994
g15
aS'in'
p995
aS'IN'
p996
ag25
aS'case'
p997
aa(lp998
g18
ag69
aS'DT'
p999
ag25
aS'det'
p1000
aa(lp1001
g80
aS'dutch'
p1002
aS'JJ'
p1003
ag25
aS'amod'
p1004
aa(lp1005
g25
aS'oven'
p1006
aS'NN'
p1007
ag4
aS'nmod'
p1008
aa(lp1009
g36
aS'add'
p1010
aS'VB'
p1011
ag4
aS'conj'
p1012
aa(lp1013
S'10'
p1014
aS'cabbage'
p1015
aS'NN'
p1016
ag36
aS'dobj'
p1017
aa(lp1018
S'12'
p1019
aS'and'
p1020
aS'CC'
p1021
ag4
aS'cc'
p1022
aa(lp1023
S'13'
p1024
aS'saute'
p1025
aS'VB'
p1026
ag4
aS'conj'
p1027
aa(lp1028
S'14'
p1029
aS'for'
p1030
aS'IN'
p1031
aS'16'
p1032
aS'case'
p1033
aa(lp1034
S'15'
p1035
ag18
aS'CD'
p1036
aS'16'
p1037
aS'nummod'
p1038
aa(lp1039
S'16'
p1040
aS'minutes'
p1041
aS'NNS'
p1042
aS'13'
p1043
aS'nmod'
p1044
aaa(lp1045
(lp1046
g4
aS'season'
p1047
aS'NN'
p1048
ag7
aS'root'
p1049
aa(lp1050
g10
aS'with'
p1051
aS'IN'
p1052
ag80
aS'case'
p1053
aa(lp1054
g73
aS'salt'
p1055
aS'NN'
p1056
ag80
aS'compound'
p1057
aa(lp1058
g15
aS'and'
p1059
aS'CC'
p1060
ag73
aS'cc'
p1061
aa(lp1062
g18
aS'caraway'
p1063
aS'NN'
p1064
ag73
aS'conj'
p1065
aa(lp1066
g80
aS'seeds'
p1067
aS'NNS'
p1068
ag4
aS'nmod'
p1069
aaa(lp1070
(lp1071
g4
aS'pour'
p1072
aS'VB'
p1073
ag7
aS'root'
p1074
aa(lp1075
g10
aS'in'
p1076
aS'IN'
p1077
ag18
aS'case'
p1078
aa(lp1079
g73
aS'the'
p1080
aS'DT'
p1081
ag18
aS'det'
p1082
aa(lp1083
g15
aS'beef'
p1084
aS'NN'
p1085
ag18
aS'compound'
p1086
aa(lp1087
g18
aS'broth'
p1088
aS'NN'
p1089
ag4
aS'nmod'
p1090
aa(lp1091
g80
aS'and'
p1092
aS'CC'
p1093
ag4
aS'cc'
p1094
aa(lp1095
g25
aS'cover'
p1096
aS'VB'
p1097
ag4
aS'conj'
p1098
aa(lp1099
g36
aS'simmer'
p1100
aS'VB'
p1101
ag4
aS'dep'
p1102
aa(lp1103
S'10'
p1104
aS'over'
p1105
aS'RP'
p1106
ag36
aS'compound:prt'
p1107
aa(lp1108
S'11'
p1109
aS'low'
p1110
aS'JJ'
p1111
aS'12'
p1112
aS'amod'
p1113
aa(lp1114
S'12'
p1115
aS'heat'
p1116
aS'NN'
p1117
ag36
aS'dobj'
p1118
aa(lp1119
S'13'
p1120
aS'for'
p1121
aS'IN'
p1122
aS'16'
p1123
aS'case'
p1124
aa(lp1125
S'14'
p1126
aS'about'
p1127
aS'RB'
p1128
aS'15'
p1129
aS'advmod'
p1130
aa(lp1131
S'15'
p1132
aS'15'
p1133
aS'CD'
p1134
aS'16'
p1135
aS'nummod'
p1136
aa(lp1137
S'16'
p1138
aS'minutes'
p1139
aS'NNS'
p1140
aS'12'
p1141
aS'nmod'
p1142
aaa(lp1143
(lp1144
g4
aS'meanwhile'
p1145
aS'RB'
p1146
ag7
aS'root'
p1147
aa(lp1148
g10
aS'peel'
p1149
aS'NN'
p1150
ag36
aS'compound'
p1151
aa(lp1152
g15
aS'quarter'
p1153
aS'NN'
p1154
ag10
aS'conj'
p1155
aa(lp1156
g80
aS'core'
p1157
aS'NN'
p1158
ag10
aS'conj'
p1159
aa(lp1160
g25
aS'and'
p1161
aS'CC'
p1162
ag10
aS'cc'
p1163
aa(lp1164
g31
aS'cut'
p1165
aS'NN'
p1166
ag10
aS'conj'
p1167
aa(lp1168
g36
aS'apples'
p1169
aS'NNS'
p1170
ag4
aS'nmod'
p1171
aa(lp1172
S'10'
p1173
aS'into'
p1174
aS'IN'
p1175
aS'12'
p1176
aS'case'
p1177
aa(lp1178
S'11'
p1179
aS'thin'
p1180
aS'JJ'
p1181
aS'12'
p1182
aS'amod'
p1183
aa(lp1184
S'12'
p1185
aS'wedges'
p1186
aS'NNS'
p1187
ag36
aS'nmod'
p1188
aaa(lp1189
(lp1190
g4
aS'add'
p1191
aS'VB'
p1192
ag7
aS'root'
p1193
aa(lp1194
g10
aS'to'
p1195
aS'TO'
p1196
ag73
aS'case'
p1197
aa(lp1198
g73
aS'cabbage'
p1199
aS'NN'
p1200
ag4
aS'nmod'
p1201
aa(lp1202
g15
aS'and'
p1203
aS'CC'
p1204
ag73
aS'cc'
p1205
aa(lp1206
g18
aS'simmer'
p1207
aS'NN'
p1208
ag73
aS'conj'
p1209
aa(lp1210
g80
aS'for'
p1211
aS'IN'
p1212
ag36
aS'case'
p1213
aa(lp1214
g25
aS'another'
p1215
aS'DT'
p1216
ag36
aS'det'
p1217
aa(lp1218
g31
aS'30'
p1219
aS'CD'
p1220
ag36
aS'nummod'
p1221
aa(lp1222
g36
aS'minutes'
p1223
aS'NNS'
p1224
ag4
aS'nmod'
p1225
aaa(lp1226
(lp1227
g4
aS'blend'
p1228
aS'VB'
p1229
ag7
aS'root'
p1230
aa(lp1231
g10
aS'cornstarch'
p1232
aS'NN'
p1233
ag4
aS'dobj'
p1234
aa(lp1235
g73
aS'with'
p1236
aS'IN'
p1237
ag18
aS'case'
p1238
aa(lp1239
g15
aS'cold'
p1240
aS'JJ'
p1241
ag18
aS'amod'
p1242
aa(lp1243
g18
aS'water'
p1244
aS'NN'
p1245
ag4
aS'nmod'
p1246
aa(lp1247
g25
aS'add'
p1248
aS'VB'
p1249
ag4
aS'conj'
p1250
aa(lp1251
g31
aS'to'
p1252
aS'TO'
p1253
ag36
aS'case'
p1254
aa(lp1255
g36
aS'cabbage'
p1256
aS'NN'
p1257
ag25
aS'nmod'
p1258
aa(lp1259
S'11'
p1260
aS'and'
p1261
aS'CC'
p1262
ag4
aS'cc'
p1263
aa(lp1264
S'12'
p1265
aS'stir'
p1266
aS'VB'
p1267
ag4
aS'conj'
p1268
aa(lp1269
S'13'
p1270
aS'until'
p1271
aS'IN'
p1272
aS'14'
p1273
aS'case'
p1274
aa(lp1275
S'14'
p1276
aS'thickend'
p1277
aS'NN'
p1278
aS'12'
p1279
aS'nmod'
p1280
aa(lp1281
S'15'
p1282
aS'and'
p1283
aS'CC'
p1284
aS'14'
p1285
aS'cc'
p1286
aa(lp1287
S'16'
p1288
aS'bubbly'
p1289
aS'NN'
p1290
aS'14'
p1291
aS'conj'
p1292
aaa(lp1293
(lp1294
g4
aS'season'
p1295
aS'NN'
p1296
ag7
aS'root'
p1297
aa(lp1298
g10
aS'with'
p1299
aS'IN'
p1300
ag73
aS'case'
p1301
aa(lp1302
g73
aS'vinegar'
p1303
aS'NN'
p1304
ag4
aS'nmod'
p1305
aa(lp1306
g15
aS'and'
p1307
aS'CC'
p1308
ag73
aS'cc'
p1309
aa(lp1310
g18
aS'sugar'
p1311
aS'NN'
p1312
ag73
aS'conj'
p1313
aa(lp1314
g80
aS'just'
p1315
aS'RB'
p1316
ag31
aS'advmod'
p1317
aa(lp1318
g25
aS'before'
p1319
aS'IN'
p1320
ag31
aS'mark'
p1321
aa(lp1322
g31
aS'serving'
p1323
aS'VBG'
p1324
ag4
aS'dep'
p1325
aaaa(lp1326
(lp1327
(lp1328
g4
aS'place'
p1329
aS'NN'
p1330
ag7
aS'root'
p1331
aa(lp1332
g10
aS'filets'
p1333
aS'VBZ'
p1334
ag4
aS'dep'
p1335
aa(lp1336
g73
aS'in'
p1337
aS'IN'
p1338
ag18
aS'case'
p1339
aa(lp1340
g15
ag69
aS'DT'
p1341
ag18
aS'det'
p1342
aa(lp1343
g18
aS'layer'
p1344
aS'NN'
p1345
ag10
aS'nmod'
p1346
aa(lp1347
g80
aS'in'
p1348
aS'IN'
p1349
ag36
aS'case'
p1350
aa(lp1351
g25
aS'oiled'
p1352
aS'JJ'
p1353
ag36
aS'amod'
p1354
aa(lp1355
g31
ag36
aS'CD'
p1356
ag25
aS'dep'
p1357
aa(lp1358
g36
aS'inch'
p1359
aS'NN'
p1360
ag18
aS'nmod'
p1361
aa(lp1362
S'10'
p1363
aS'square'
p1364
aS'JJ'
p1365
aS'12'
p1366
aS'amod'
p1367
aa(lp1368
S'11'
p1369
aS'baking'
p1370
aS'JJ'
p1371
aS'12'
p1372
aS'amod'
p1373
aa(lp1374
S'12'
p1375
aS'pan'
p1376
aS'NNS'
p1377
ag10
aS'dobj'
p1378
aa(lp1379
S'14'
p1380
aS'saute'
p1381
aS'JJ'
p1382
aS'15'
p1383
aS'amod'
p1384
aa(lp1385
S'15'
p1386
aS'onion'
p1387
aS'NN'
p1388
aS'12'
p1389
aS'conj'
p1390
aa(lp1391
S'17'
p1392
aS'zuchini'
p1393
aS'NNS'
p1394
aS'12'
p1395
aS'conj'
p1396
aa(lp1397
S'18'
p1398
aS'and'
p1399
aS'CC'
p1400
aS'12'
p1401
aS'cc'
p1402
aa(lp1403
S'19'
p1404
aS'green'
p1405
aS'JJ'
p1406
aS'20'
p1407
aS'amod'
p1408
aa(lp1409
S'20'
p1410
aS'pepper'
p1411
aS'NN'
p1412
aS'12'
p1413
aS'conj'
p1414
aa(lp1415
S'21'
p1416
aS'in'
p1417
aS'IN'
p1418
aS'22'
p1419
aS'case'
p1420
aa(lp1421
S'22'
p1422
aS'oil'
p1423
aS'NN'
p1424
ag10
aS'nmod'
p1425
aa(lp1426
S'23'
p1427
aS'until'
p1428
aS'IN'
p1429
aS'25'
p1430
aS'case'
p1431
aa(lp1432
S'24'
p1433
aS'crisp'
p1434
aS'JJ'
p1435
aS'25'
p1436
aS'amod'
p1437
aa(lp1438
S'25'
p1439
aS'tender'
p1440
aS'NN'
p1441
ag10
aS'nmod'
p1442
aa(lp1443
S'27'
p1444
aS'spoon'
p1445
aS'NN'
p1446
ag4
aS'dep'
p1447
aa(lp1448
S'28'
p1449
aS'over'
p1450
aS'IN'
p1451
aS'29'
p1452
aS'case'
p1453
aa(lp1454
S'29'
p1455
aS'filets'
p1456
aS'NNS'
p1457
aS'27'
p1458
aS'nmod'
p1459
aaa(lp1460
(lp1461
g4
aS'top'
p1462
aS'VB'
p1463
ag7
aS'root'
p1464
aa(lp1465
g10
aS'with'
p1466
aS'IN'
p1467
ag73
aS'case'
p1468
aa(lp1469
g73
aS'tomatoes'
p1470
aS'NNS'
p1471
ag4
aS'nmod'
p1472
aaa(lp1473
(lp1474
g4
aS'combine'
p1475
aS'VB'
p1476
ag7
aS'root'
p1477
aa(lp1478
g10
aS'sherry'
p1479
aS'JJ'
p1480
aS'14'
p1481
aS'amod'
p1482
aa(lp1483
g15
aS'lemon'
p1484
aS'JJ'
p1485
aS'14'
p1486
aS'amod'
p1487
aa(lp1488
g18
aS'juice'
p1489
aS'NN'
p1490
aS'14'
p1491
aS'compound'
p1492
aa(lp1493
g25
aS'salt'
p1494
aS'NN'
p1495
ag18
aS'conj'
p1496
aa(lp1497
g36
aS'basil'
p1498
aS'NN'
p1499
ag18
aS'conj'
p1500
aa(lp1501
S'11'
p1502
aS'pepper'
p1503
aS'NN'
p1504
ag18
aS'conj'
p1505
aa(lp1506
S'12'
p1507
aS'and'
p1508
aS'CC'
p1509
ag18
aS'cc'
p1510
aa(lp1511
S'13'
p1512
aS'pepper'
p1513
aS'NN'
p1514
ag18
aS'conj'
p1515
aa(lp1516
S'14'
p1517
aS'sauce'
p1518
aS'NN'
p1519
ag4
aS'dobj'
p1520
aa(lp1521
S'16'
p1522
aS'pour'
p1523
aS'VB'
p1524
aS'14'
p1525
aS'dep'
p1526
aa(lp1527
S'17'
p1528
aS'over'
p1529
aS'RP'
p1530
aS'16'
p1531
aS'compound:prt'
p1532
aa(lp1533
S'18'
p1534
aS'filets'
p1535
aS'NNS'
p1536
aS'16'
p1537
aS'dobj'
p1538
aaa(lp1539
(lp1540
g4
aS'bake'
p1541
aS'VB'
p1542
ag7
aS'root'
p1543
aa(lp1544
g10
aS'uncovered'
p1545
aS'VBN'
p1546
ag4
aS'dep'
p1547
aa(lp1548
g73
aS'at'
p1549
aS'IN'
p1550
ag15
aS'case'
p1551
aa(lp1552
g15
aS'350f'
p1553
aS'NNS'
p1554
ag10
aS'nmod'
p1555
aa(lp1556
g18
aS'for'
p1557
aS'IN'
p1558
ag80
aS'case'
p1559
aa(lp1560
g80
aS'25'
p1561
aS'CD'
p1562
ag15
aS'nmod'
p1563
aa(lp1564
g25
aS'30'
p1565
aS'CD'
p1566
ag31
aS'nummod'
p1567
aa(lp1568
g31
aS'minutes'
p1569
aS'NNS'
p1570
ag15
aS'dep'
p1571
aaa(lp1572
(lp1573
g4
aS'remove'
p1574
aS'VB'
p1575
ag7
aS'root'
p1576
aa(lp1577
g10
aS'fish'
p1578
aS'NN'
p1579
ag36
aS'nsubj'
p1580
aa(lp1581
g73
aS'and'
p1582
aS'CC'
p1583
ag10
aS'cc'
p1584
aa(lp1585
g15
aS'vegetables'
p1586
aS'NNS'
p1587
ag10
aS'conj'
p1588
aa(lp1589
g18
aS'to'
p1590
aS'TO'
p1591
ag25
aS'case'
p1592
aa(lp1593
g80
aS'heated'
p1594
aS'JJ'
p1595
ag25
aS'amod'
p1596
aa(lp1597
g25
aS'platter'
p1598
aS'NN'
p1599
ag10
aS'nmod'
p1600
aa(lp1601
g36
aS'sprinkle'
p1602
aS'VBP'
p1603
ag4
aS'ccomp'
p1604
aa(lp1605
S'10'
p1606
aS'with'
p1607
aS'IN'
p1608
aS'12'
p1609
aS'case'
p1610
aa(lp1611
S'11'
p1612
aS'parmesian'
p1613
aS'NN'
p1614
aS'12'
p1615
aS'compound'
p1616
aa(lp1617
S'12'
p1618
aS'cheese'
p1619
aS'NN'
p1620
ag36
aS'nmod'
p1621
aaa(lp1622
(lp1623
g4
aS'if'
p1624
aS'IN'
p1625
ag10
aS'mark'
p1626
aa(lp1627
g10
aS'desired'
p1628
aS'VBD'
p1629
ag15
aS'advcl'
p1630
aa(lp1631
g15
aS'serve'
p1632
aS'VB'
p1633
ag7
aS'root'
p1634
aa(lp1635
g18
aS'pan'
p1636
aS'JJ'
p1637
ag80
aS'amod'
p1638
aa(lp1639
g80
aS'juices'
p1640
aS'NNS'
p1641
ag15
aS'dobj'
p1642
aa(lp1643
g25
aS'over'
p1644
aS'IN'
p1645
ag31
aS'case'
p1646
aa(lp1647
g31
aS'bulgar'
p1648
aS'NN'
p1649
ag15
aS'nmod'
p1650
aa(lp1651
g36
aS'or'
p1652
aS'CC'
p1653
ag31
aS'cc'
p1654
aa(lp1655
S'10'
p1656
aS'rice'
p1657
aS'NN'
p1658
ag31
aS'conj'
p1659
aaaa(lp1660
(lp1661
(lp1662
g4
aS'rub'
p1663
aS'VB'
p1664
ag7
aS'root'
p1665
aa(lp1666
g10
aS'veal'
p1667
aS'NN'
p1668
ag73
aS'compound'
p1669
aa(lp1670
g73
aS'steaks'
p1671
aS'NNS'
p1672
ag4
aS'dobj'
p1673
aa(lp1674
g15
aS'with'
p1675
aS'IN'
p1676
ag18
aS'case'
p1677
aa(lp1678
g18
aS'salt'
p1679
aS'NN'
p1680
ag4
aS'nmod'
p1681
aa(lp1682
g80
aS'and'
p1683
aS'CC'
p1684
ag18
aS'cc'
p1685
aa(lp1686
g25
aS'pepper'
p1687
aS'NN'
p1688
ag18
aS'conj'
p1689
aaa(lp1690
(lp1691
g4
aS'heat'
p1692
aS'VB'
p1693
ag7
aS'root'
p1694
aa(lp1695
g10
aS'oil'
p1696
aS'NN'
p1697
ag80
aS'compound'
p1698
aa(lp1699
g73
aS'and'
p1700
aS'CC'
p1701
ag10
aS'cc'
p1702
aa(lp1703
g15
aS'cook'
p1704
aS'NN'
p1705
ag10
aS'conj'
p1706
aa(lp1707
g18
aS'veal'
p1708
aS'NN'
p1709
ag80
aS'compound'
p1710
aa(lp1711
g80
aS'slices'
p1712
aS'NNS'
p1713
ag4
aS'dobj'
p1714
aa(lp1715
g25
aS'about'
p1716
aS'RB'
p1717
ag31
aS'advmod'
p1718
aa(lp1719
g31
ag10
aS'CD'
p1720
ag36
aS'nummod'
p1721
aa(lp1722
g36
aS'minutes'
p1723
aS'NNS'
p1724
ag4
aS'nmod'
p1725
aa(lp1726
S'10'
p1727
aS'on'
p1728
aS'IN'
p1729
ag36
aS'case'
p1730
aa(lp1731
S'11'
p1732
aS'each'
p1733
aS'DT'
p1734
aS'12'
p1735
aS'det'
p1736
aa(lp1737
S'12'
p1738
aS'side'
p1739
aS'NN'
p1740
ag36
aS'dep'
p1741
aaa(lp1742
(lp1743
g4
aS'place'
p1744
aS'VB'
p1745
ag7
aS'root'
p1746
aa(lp1747
g10
aS'veal'
p1748
aS'NN'
p1749
ag4
aS'dobj'
p1750
aa(lp1751
g73
aS'in'
p1752
aS'IN'
p1753
ag80
aS'case'
p1754
aa(lp1755
g15
aS'an'
p1756
aS'DT'
p1757
ag80
aS'det'
p1758
aa(lp1759
g18
aS'ovenproof'
p1760
aS'NN'
p1761
ag80
aS'compound'
p1762
aa(lp1763
g80
aS'casserole'
p1764
aS'NN'
p1765
ag4
aS'nmod'
p1766
aaa(lp1767
(lp1768
g4
aS'add'
p1769
aS'VB'
p1770
ag7
aS'root'
p1771
aa(lp1772
g10
aS'cored'
p1773
aS'JJ'
p1774
ag18
aS'amod'
p1775
aa(lp1776
g15
aS'sliced'
p1777
aS'JJ'
p1778
ag18
aS'amod'
p1779
aa(lp1780
g18
aS'apples'
p1781
aS'NNS'
p1782
ag4
aS'dobj'
p1783
aaa(lp1784
(lp1785
g4
aS'blend'
p1786
aS'VB'
p1787
ag7
aS'root'
p1788
aa(lp1789
g10
aS'evaporated'
p1790
aS'JJ'
p1791
ag73
aS'amod'
p1792
aa(lp1793
g73
aS'milk'
p1794
aS'NN'
p1795
ag4
aS'dobj'
p1796
aa(lp1797
g15
aS'and'
p1798
aS'CC'
p1799
ag73
aS'cc'
p1800
aa(lp1801
g18
aS'yogurt'
p1802
aS'NN'
p1803
ag73
aS'conj'
p1804
aa(lp1805
g80
aS'together'
p1806
aS'RB'
p1807
ag4
aS'advmod'
p1808
aaa(lp1809
(lp1810
g4
aS'spread'
p1811
aS'VB'
p1812
ag7
aS'root'
p1813
aa(lp1814
g10
aS'over'
p1815
aS'RP'
p1816
ag4
aS'compound:prt'
p1817
aa(lp1818
g73
aS'apples'
p1819
aS'NNS'
p1820
ag4
aS'dobj'
p1821
aaa(lp1822
(lp1823
g4
aS'place'
p1824
aS'VB'
p1825
ag7
aS'root'
p1826
aa(lp1827
g10
aS'in'
p1828
aS'IN'
p1829
ag80
aS'case'
p1830
aa(lp1831
g73
ag69
aS'DT'
p1832
ag80
aS'det'
p1833
aa(lp1834
g15
aS'preheated'
p1835
aS'JJ'
p1836
ag80
aS'amod'
p1837
aa(lp1838
g18
aS'325'
p1839
aS'JJ'
p1840
ag80
aS'amod'
p1841
aa(lp1842
g80
aS'degree'
p1843
aS'NN'
p1844
ag4
aS'nmod'
p1845
aa(lp1846
g25
aS'f'
p1847
aS'SYM'
p1848
ag80
aS'dep'
p1849
aaa(lp1850
(lp1851
g4
aS'oven'
p1852
aS'NN'
p1853
ag7
aS'root'
p1854
aa(lp1855
g73
aS'cook'
p1856
aS'VB'
p1857
ag4
aS'appos'
p1858
aa(lp1859
g15
aS'just'
p1860
aS'RB'
p1861
ag73
aS'advmod'
p1862
aa(lp1863
g18
aS'until'
p1864
aS'IN'
p1865
ag80
aS'case'
p1866
aa(lp1867
g80
aS'bubbly'
p1868
aS'NN'
p1869
ag73
aS'nmod'
p1870
aa(lp1871
g31
aS'about'
p1872
aS'RB'
p1873
aS'11'
p1874
aS'advmod'
p1875
aa(lp1876
g36
aS'20'
p1877
aS'CD'
p1878
aS'11'
p1879
aS'compound'
p1880
aa(lp1881
S'10'
p1882
aS'to'
p1883
aS'TO'
p1884
aS'11'
p1885
aS'dep'
p1886
aa(lp1887
S'11'
p1888
aS'30'
p1889
aS'CD'
p1890
aS'12'
p1891
aS'nummod'
p1892
aa(lp1893
S'12'
p1894
aS'minutes'
p1895
aS'NNS'
p1896
ag80
aS'appos'
p1897
aaaa.